target datalayout = "e-m:e-p270:32:32-p271:32:32-p272:64:64-i64:64-i128:128-f80:128-n8:16:32:64-S128"
target triple = "x86_64-pc-linux-gnu"

%struct.PaAlsaStreamComponent = type { i64, i32, i32, i32, i32, i32, ptr, i32, i32, i32, i32, ptr, i64, i64, i32, i32, i32, ptr, i64, i32, ptr }

@alsa_snd_pcm_mmap_commit = internal global ptr null, align 8
@alsa_snd_pcm_writei = internal global ptr null, align 8
@alsa_snd_pcm_writen = internal global ptr null, align 8
@alsa_snd_pcm_format_size = internal global ptr null, align 8
@alsa_snd_strerror = internal global ptr null, align 8
@paUnixMainThread = external global i64, align 8
@.str.189 = private unnamed_addr constant [172 x i8] c"Expression 'res' failed in 'generated/home/dtcxzyw/WorkSpace/Projects/compilers/llvm-opt-benchmark/bench/portaudio/portaudio/src/hostapi/alsa/pa_linux_alsa.c', line: 3543\0A\00", align 1

; Function Attrs: inlinehint nounwind willreturn memory(none) uwtable
define available_externally i32 @pthread_equal(i64 noundef %0, i64 noundef %1) #8 {
  %3 = alloca i64, align 8
  %4 = alloca i64, align 8
  store i64 %0, ptr %3, align 8, !tbaa !37
  store i64 %1, ptr %4, align 8, !tbaa !37
  %5 = load i64, ptr %3, align 8, !tbaa !37
  %6 = load i64, ptr %4, align 8, !tbaa !37
  %7 = icmp eq i64 %5, %6
  %8 = zext i1 %7 to i32
  ret i32 %8
}

; Function Attrs: nounwind uwtable
define internal i32 @PaAlsaStreamComponent_EndProcessing(ptr noundef %0, i64 noundef %1, ptr noundef %2) #0 {
  %4 = alloca i32, align 4
  %5 = alloca ptr, align 8
  %6 = alloca i64, align 8
  %7 = alloca ptr, align 8
  %8 = alloca i32, align 4
  %9 = alloca i32, align 4
  %10 = alloca ptr, align 8
  %11 = alloca i64, align 8
  %12 = alloca i32, align 4
  %13 = alloca ptr, align 8
  %14 = alloca i32, align 4
  %15 = alloca i32, align 4
  %16 = alloca i32, align 4
  store ptr %0, ptr %5, align 8, !tbaa !32
  store i64 %1, ptr %6, align 8, !tbaa !37
  store ptr %2, ptr %7, align 8, !tbaa !122
  call void @llvm.lifetime.start.p0(i64 4, ptr %8) #17
  store i32 0, ptr %8, align 4, !tbaa !8
  call void @llvm.lifetime.start.p0(i64 4, ptr %9) #17
  store i32 0, ptr %9, align 4, !tbaa !8
  %17 = load ptr, ptr %5, align 8, !tbaa !32
  %18 = getelementptr inbounds nuw %struct.PaAlsaStreamComponent, ptr %17, i32 0, i32 16
  %19 = load i32, ptr %18, align 8, !tbaa !216
  %20 = icmp ne i32 %19, 0
  br i1 %20, label %22, label %21

21:                                               ; preds = %3
  br label %150

22:                                               ; preds = %3
  %23 = load ptr, ptr %5, align 8, !tbaa !32
  %24 = getelementptr inbounds nuw %struct.PaAlsaStreamComponent, ptr %23, i32 0, i32 5
  %25 = load i32, ptr %24, align 8, !tbaa !187
  %26 = icmp ne i32 %25, 0
  br i1 %26, label %96, label %27

27:                                               ; preds = %22
  %28 = load ptr, ptr %5, align 8, !tbaa !32
  %29 = getelementptr inbounds nuw %struct.PaAlsaStreamComponent, ptr %28, i32 0, i32 19
  %30 = load i32, ptr %29, align 8, !tbaa !186
  %31 = icmp eq i32 1, %30
  br i1 %31, label %32, label %96

32:                                               ; preds = %27
  %33 = load ptr, ptr %5, align 8, !tbaa !32
  %34 = getelementptr inbounds nuw %struct.PaAlsaStreamComponent, ptr %33, i32 0, i32 4
  %35 = load i32, ptr %34, align 4, !tbaa !184
  %36 = icmp ne i32 %35, 0
  br i1 %36, label %37, label %48

37:                                               ; preds = %32
  %38 = load ptr, ptr @alsa_snd_pcm_writei, align 8, !tbaa !32
  %39 = load ptr, ptr %5, align 8, !tbaa !32
  %40 = getelementptr inbounds nuw %struct.PaAlsaStreamComponent, ptr %39, i32 0, i32 11
  %41 = load ptr, ptr %40, align 8, !tbaa !179
  %42 = load ptr, ptr %5, align 8, !tbaa !32
  %43 = getelementptr inbounds nuw %struct.PaAlsaStreamComponent, ptr %42, i32 0, i32 6
  %44 = load ptr, ptr %43, align 8, !tbaa !188
  %45 = load i64, ptr %6, align 8, !tbaa !37
  %46 = call i64 %38(ptr noundef %41, ptr noundef %44, i64 noundef %45)
  %47 = trunc i64 %46 to i32
  store i32 %47, ptr %9, align 4, !tbaa !8
  br label %95

48:                                               ; preds = %32
  %49 = load ptr, ptr %5, align 8, !tbaa !32
  %50 = getelementptr inbounds nuw %struct.PaAlsaStreamComponent, ptr %49, i32 0, i32 2
  %51 = load i32, ptr %50, align 4, !tbaa !175
  %52 = zext i32 %51 to i64
  %53 = call ptr @llvm.stacksave.p0()
  store ptr %53, ptr %10, align 8
  %54 = alloca ptr, i64 %52, align 16
  store i64 %52, ptr %11, align 8
  call void @llvm.lifetime.start.p0(i64 4, ptr %12) #17
  %55 = load ptr, ptr @alsa_snd_pcm_format_size, align 8, !tbaa !32
  %56 = load ptr, ptr %5, align 8, !tbaa !32
  %57 = getelementptr inbounds nuw %struct.PaAlsaStreamComponent, ptr %56, i32 0, i32 14
  %58 = load i32, ptr %57, align 8, !tbaa !182
  %59 = load ptr, ptr %5, align 8, !tbaa !32
  %60 = getelementptr inbounds nuw %struct.PaAlsaStreamComponent, ptr %59, i32 0, i32 12
  %61 = load i64, ptr %60, align 8, !tbaa !194
  %62 = add i64 %61, 1
  %63 = call i64 %55(i32 noundef %58, i64 noundef %62)
  %64 = trunc i64 %63 to i32
  store i32 %64, ptr %12, align 4, !tbaa !8
  call void @llvm.lifetime.start.p0(i64 8, ptr %13) #17
  %65 = load ptr, ptr %5, align 8, !tbaa !32
  %66 = getelementptr inbounds nuw %struct.PaAlsaStreamComponent, ptr %65, i32 0, i32 6
  %67 = load ptr, ptr %66, align 8, !tbaa !188
  store ptr %67, ptr %13, align 8, !tbaa !3
  call void @llvm.lifetime.start.p0(i64 4, ptr %14) #17
  store i32 0, ptr %14, align 4, !tbaa !8
  br label %68

68:                                               ; preds = %83, %48
  %69 = load i32, ptr %14, align 4, !tbaa !8
  %70 = load ptr, ptr %5, align 8, !tbaa !32
  %71 = getelementptr inbounds nuw %struct.PaAlsaStreamComponent, ptr %70, i32 0, i32 2
  %72 = load i32, ptr %71, align 4, !tbaa !175
  %73 = icmp slt i32 %69, %72
  br i1 %73, label %74, label %86

74:                                               ; preds = %68
  %75 = load ptr, ptr %13, align 8, !tbaa !3
  %76 = load i32, ptr %14, align 4, !tbaa !8
  %77 = sext i32 %76 to i64
  %78 = getelementptr inbounds ptr, ptr %54, i64 %77
  store ptr %75, ptr %78, align 8, !tbaa !32
  %79 = load i32, ptr %12, align 4, !tbaa !8
  %80 = load ptr, ptr %13, align 8, !tbaa !3
  %81 = sext i32 %79 to i64
  %82 = getelementptr inbounds i8, ptr %80, i64 %81
  store ptr %82, ptr %13, align 8, !tbaa !3
  br label %83

83:                                               ; preds = %74
  %84 = load i32, ptr %14, align 4, !tbaa !8
  %85 = add nsw i32 %84, 1
  store i32 %85, ptr %14, align 4, !tbaa !8
  br label %68, !llvm.loop !219

86:                                               ; preds = %68
  %87 = load ptr, ptr @alsa_snd_pcm_writen, align 8, !tbaa !32
  %88 = load ptr, ptr %5, align 8, !tbaa !32
  %89 = getelementptr inbounds nuw %struct.PaAlsaStreamComponent, ptr %88, i32 0, i32 11
  %90 = load ptr, ptr %89, align 8, !tbaa !179
  %91 = load i64, ptr %6, align 8, !tbaa !37
  %92 = call i64 %87(ptr noundef %90, ptr noundef %54, i64 noundef %91)
  %93 = trunc i64 %92 to i32
  store i32 %93, ptr %9, align 4, !tbaa !8
  call void @llvm.lifetime.end.p0(i64 4, ptr %14) #17
  call void @llvm.lifetime.end.p0(i64 8, ptr %13) #17
  call void @llvm.lifetime.end.p0(i64 4, ptr %12) #17
  %94 = load ptr, ptr %10, align 8
  call void @llvm.stackrestore.p0(ptr %94)
  br label %95

95:                                               ; preds = %86, %37
  br label %96

96:                                               ; preds = %95, %27, %22
  %97 = load ptr, ptr %5, align 8, !tbaa !32
  %98 = getelementptr inbounds nuw %struct.PaAlsaStreamComponent, ptr %97, i32 0, i32 5
  %99 = load i32, ptr %98, align 8, !tbaa !187
  %100 = icmp ne i32 %99, 0
  br i1 %100, label %101, label %112

101:                                              ; preds = %96
  %102 = load ptr, ptr @alsa_snd_pcm_mmap_commit, align 8, !tbaa !32
  %103 = load ptr, ptr %5, align 8, !tbaa !32
  %104 = getelementptr inbounds nuw %struct.PaAlsaStreamComponent, ptr %103, i32 0, i32 11
  %105 = load ptr, ptr %104, align 8, !tbaa !179
  %106 = load ptr, ptr %5, align 8, !tbaa !32
  %107 = getelementptr inbounds nuw %struct.PaAlsaStreamComponent, ptr %106, i32 0, i32 18
  %108 = load i64, ptr %107, align 8, !tbaa !220
  %109 = load i64, ptr %6, align 8, !tbaa !37
  %110 = call i64 %102(ptr noundef %105, i64 noundef %108, i64 noundef %109)
  %111 = trunc i64 %110 to i32
  store i32 %111, ptr %9, align 4, !tbaa !8
  br label %112

112:                                              ; preds = %101, %96
  %113 = load i32, ptr %9, align 4, !tbaa !8
  %114 = icmp eq i32 %113, -32
  br i1 %114, label %115, label %117

115:                                              ; preds = %112
  %116 = load ptr, ptr %7, align 8, !tbaa !122
  store i32 1, ptr %116, align 4, !tbaa !8
  br label %149

117:                                              ; preds = %112
  %118 = load i32, ptr %9, align 4, !tbaa !8
  %119 = icmp eq i32 %118, -86
  br i1 %119, label %120, label %122

120:                                              ; preds = %117
  %121 = load ptr, ptr %7, align 8, !tbaa !122
  store i32 1, ptr %121, align 4, !tbaa !8
  br label %148

122:                                              ; preds = %117
  br label %123

123:                                              ; preds = %122
  call void @llvm.lifetime.start.p0(i64 4, ptr %15) #17
  %124 = load i32, ptr %9, align 4, !tbaa !8
  store i32 %124, ptr %15, align 4, !tbaa !8
  %125 = icmp slt i32 %124, 0
  %126 = zext i1 %125 to i32
  %127 = sext i32 %126 to i64
  %128 = call i64 @llvm.expect.i64(i64 %127, i64 0)
  %129 = icmp ne i64 %128, 0
  br i1 %129, label %130, label %142

130:                                              ; preds = %123
  %131 = call i64 @pthread_self() #20
  %132 = load i64, ptr @paUnixMainThread, align 8, !tbaa !37
  %133 = call i32 @pthread_equal(i64 noundef %131, i64 noundef %132) #20
  %134 = icmp ne i32 %133, 0
  br i1 %134, label %135, label %141

135:                                              ; preds = %130
  %136 = load i32, ptr %15, align 4, !tbaa !8
  %137 = sext i32 %136 to i64
  %138 = load ptr, ptr @alsa_snd_strerror, align 8, !tbaa !32
  %139 = load i32, ptr %15, align 4, !tbaa !8
  %140 = call ptr %138(i32 noundef %139)
  call void @PaUtil_SetLastHostErrorInfo(i32 noundef 8, i64 noundef %137, ptr noundef %140)
  br label %141

141:                                              ; preds = %135, %130
  call void (ptr, ...) @PaUtil_DebugPrint(ptr noundef @.str.189)
  store i32 -9999, ptr %8, align 4, !tbaa !8
  store i32 8, ptr %16, align 4
  br label %143

142:                                              ; preds = %123
  store i32 0, ptr %16, align 4
  br label %143

143:                                              ; preds = %141, %142
  call void @llvm.lifetime.end.p0(i64 4, ptr %15) #17
  %144 = load i32, ptr %16, align 4
  switch i32 %144, label %153 [
    i32 0, label %145
    i32 8, label %151
  ]

145:                                              ; preds = %143
  br label %146

146:                                              ; preds = %145
  br label %147

147:                                              ; preds = %146
  br label %148

148:                                              ; preds = %147, %120
  br label %149

149:                                              ; preds = %148, %115
  br label %150

150:                                              ; preds = %149, %21
  br label %151

151:                                              ; preds = %150, %143
  %152 = load i32, ptr %8, align 4, !tbaa !8
  store i32 %152, ptr %4, align 4
  store i32 1, ptr %16, align 4
  br label %153

153:                                              ; preds = %151, %143
  call void @llvm.lifetime.end.p0(i64 4, ptr %9) #17
  call void @llvm.lifetime.end.p0(i64 4, ptr %8) #17
  %154 = load i32, ptr %4, align 4
  ret i32 %154
}