; Function Attrs: nounwind uwtable
define internal fastcc range(i32 -9999, 1) i32 @PaAlsaStreamComponent_EndProcessing(ptr noundef readonly captures(none) %0, i64 noundef %1, ptr noundef nonnull writeonly captures(none) %2) unnamed_addr #2 {
  %4 = getelementptr inbounds nuw i8, ptr %0, i64 88
  %5 = load i32, ptr %4, align 8, !tbaa !253
  %.not = icmp eq i32 %5, 0
  br i1 %.not, label %66, label %6

6:                                                ; preds = %3
  %7 = getelementptr inbounds nuw i8, ptr %0, i64 24
  %8 = load i32, ptr %7, align 8, !tbaa !219
  %.not40 = icmp eq i32 %8, 0
  br i1 %.not40, label %9, label %.thread

9:                                                ; preds = %6
  %10 = getelementptr inbounds nuw i8, ptr %0, i64 112
  %11 = load i32, ptr %10, align 8, !tbaa !218
  %12 = icmp eq i32 %11, 1
  br i1 %12, label %13, label %47

13:                                               ; preds = %9
  %14 = getelementptr inbounds nuw i8, ptr %0, i64 20
  %15 = load i32, ptr %14, align 4, !tbaa !216
  %.not41 = icmp eq i32 %15, 0
  br i1 %.not41, label %23, label %16

16:                                               ; preds = %13
  %17 = getelementptr inbounds nuw i8, ptr %0, i64 56
  %18 = load ptr, ptr %17, align 8, !tbaa !147
  %19 = getelementptr inbounds nuw i8, ptr %0, i64 32
  %20 = load ptr, ptr %19, align 8, !tbaa !206
  %21 = tail call i64 @snd_pcm_writei(ptr noundef %18, ptr noundef %20, i64 noundef %1) #25, !callees !278
  %22 = trunc i64 %21 to i32
  br label %47

23:                                               ; preds = %13
  %24 = getelementptr inbounds nuw i8, ptr %0, i64 12
  %25 = load i32, ptr %24, align 4, !tbaa !207
  %26 = zext i32 %25 to i64
  %27 = tail call ptr @llvm.stacksave.p0()
  %28 = alloca ptr, i64 %26, align 16
  %29 = getelementptr inbounds nuw i8, ptr %0, i64 80
  %30 = load i32, ptr %29, align 8, !tbaa !214
  %31 = getelementptr inbounds nuw i8, ptr %0, i64 64
  %32 = load i64, ptr %31, align 8, !tbaa !197
  %33 = add i64 %32, 1
  %34 = tail call i64 @snd_pcm_format_size(i32 noundef %30, i64 noundef %33) #25, !callees !263
  %35 = load i32, ptr %24, align 4, !tbaa !207
  %36 = icmp sgt i32 %35, 0
  br i1 %36, label %.lr.ph, label %._crit_edge

.lr.ph:                                           ; preds = %23
  %37 = getelementptr inbounds nuw i8, ptr %0, i64 32
  %38 = load ptr, ptr %37, align 8, !tbaa !206
  %sext = shl i64 %34, 32
  %39 = ashr exact i64 %sext, 32
  %wide.trip.count = zext nneg i32 %35 to i64
  br label %40

40:                                               ; preds = %.lr.ph, %40
  %indvars.iv = phi i64 [ 0, %.lr.ph ], [ %indvars.iv.next, %40 ]
  %.03647 = phi ptr [ %38, %.lr.ph ], [ %42, %40 ]
  %41 = getelementptr inbounds nuw ptr, ptr %28, i64 %indvars.iv
  store ptr %.03647, ptr %41, align 8, !tbaa !7
  %42 = getelementptr inbounds i8, ptr %.03647, i64 %39
  %indvars.iv.next = add nuw nsw i64 %indvars.iv, 1
  %exitcond.not = icmp eq i64 %indvars.iv.next, %wide.trip.count
  br i1 %exitcond.not, label %._crit_edge, label %40, !llvm.loop !279

._crit_edge:                                      ; preds = %40, %23
  %43 = getelementptr inbounds nuw i8, ptr %0, i64 56
  %44 = load ptr, ptr %43, align 8, !tbaa !147
  %45 = call i64 @snd_pcm_writen(ptr noundef %44, ptr noundef nonnull %28, i64 noundef %1) #25, !callees !280
  %46 = trunc i64 %45 to i32
  call void @llvm.stackrestore.p0(ptr %27)
  br label %47

47:                                               ; preds = %16, %._crit_edge, %9
  %.038.ph = phi i32 [ 0, %9 ], [ %46, %._crit_edge ], [ %22, %16 ]
  %.pr = load i32, ptr %7, align 8, !tbaa !219
  %.not42 = icmp eq i32 %.pr, 0
  br i1 %.not42, label %54, label %.thread

.thread:                                          ; preds = %6, %47
  %48 = getelementptr inbounds nuw i8, ptr %0, i64 56
  %49 = load ptr, ptr %48, align 8, !tbaa !147
  %50 = getelementptr inbounds nuw i8, ptr %0, i64 104
  %51 = load i64, ptr %50, align 8, !tbaa !265
  %52 = call i64 @snd_pcm_mmap_commit(ptr noundef %49, i64 noundef %51, i64 noundef %1) #25, !callees !251
  %53 = trunc i64 %52 to i32
  br label %54

54:                                               ; preds = %.thread, %47
  %.139 = phi i32 [ %53, %.thread ], [ %.038.ph, %47 ]
  switch i32 %.139, label %57 [
    i32 -32, label %55
    i32 -86, label %56
  ]

55:                                               ; preds = %54
  store i32 1, ptr %2, align 4, !tbaa !3
  br label %66

56:                                               ; preds = %54
  store i32 1, ptr %2, align 4, !tbaa !3
  br label %66

57:                                               ; preds = %54
  %58 = icmp slt i32 %.139, 0
  br i1 %58, label %59, label %66, !prof !9

59:                                               ; preds = %57
  %60 = tail call i64 @pthread_self() #28
  %61 = load i64, ptr @paUnixMainThread, align 8, !tbaa !108
  %.not46 = icmp eq i64 %60, %61
  br i1 %.not46, label %62, label %65

62:                                               ; preds = %59
  %63 = sext i32 %.139 to i64
  %64 = call ptr @snd_strerror(i32 noundef %.139) #25, !callees !109
  call void @PaUtil_SetLastHostErrorInfo(i32 noundef 8, i64 noundef %63, ptr noundef %64) #25
  br label %65

65:                                               ; preds = %62, %59
  call void (ptr, ...) @PaUtil_DebugPrint(ptr noundef nonnull @.str.189) #25
  br label %66

66:                                               ; preds = %55, %56, %3, %57, %65
  %.1 = phi i32 [ 0, %55 ], [ 0, %56 ], [ 0, %3 ], [ -9999, %65 ], [ 0, %57 ]
  ret i32 %.1
}